target datalayout = "e-m:e-p270:32:32-p271:32:32-p272:64:64-i64:64-i128:128-f80:128-n8:16:32:64-S128"
target triple = "x86_64-unknown-linux-gnu"

%"class.icu_75::CollationRuleParser" = type <{ ptr, ptr, ptr, ptr, ptr, ptr, ptr, ptr, ptr, i32, [4 x i8] }>
%"class.icu_75::UnicodeString" = type { %"class.icu_75::Replaceable", %"union.icu_75::UnicodeString::StackBufferOrFields" }
%"class.icu_75::Replaceable" = type { %"class.icu_75::UObject" }
%"class.icu_75::UObject" = type { ptr }
%"union.icu_75::UnicodeString::StackBufferOrFields" = type { %struct.anon.0, [32 x i8] }
%struct.anon.0 = type { i16, i32, i32, ptr }
%struct.anon = type { i16, [27 x i16] }

@.str.1 = private unnamed_addr constant [33 x i8] c"reset not followed by a relation\00", align 1
@.str.2 = private unnamed_addr constant [54 x i8] c"reset-before strength differs from its first relation\00", align 1
@.str.3 = private unnamed_addr constant [54 x i8] c"reset-before strength followed by a stronger relation\00", align 1

; Function Attrs: mustprogress nounwind uwtable
define linkonce_odr noundef ptr @_ZNK6icu_7513UnicodeString13getArrayStartEv(ptr noundef nonnull align 8 dereferenceable(64) %this) #0 comdat align 2 {
entry:
  %this.addr = alloca ptr, align 8
  store ptr %this, ptr %this.addr, align 8
  %this1 = load ptr, ptr %this.addr, align 8
  %fUnion = getelementptr inbounds %"class.icu_75::UnicodeString", ptr %this1, i32 0, i32 1
  %fLengthAndFlags = getelementptr inbounds %struct.anon.0, ptr %fUnion, i32 0, i32 0
  %0 = load i16, ptr %fLengthAndFlags, align 8
  %conv = sext i16 %0 to i32
  %and = and i32 %conv, 2
  %tobool = icmp ne i32 %and, 0
  br i1 %tobool, label %cond.true, label %cond.false

cond.true:                                        ; preds = %entry
  %fUnion2 = getelementptr inbounds %"class.icu_75::UnicodeString", ptr %this1, i32 0, i32 1
  %fBuffer = getelementptr inbounds %struct.anon, ptr %fUnion2, i32 0, i32 1
  %arraydecay = getelementptr inbounds [27 x i16], ptr %fBuffer, i64 0, i64 0
  br label %cond.end

cond.false:                                       ; preds = %entry
  %fUnion3 = getelementptr inbounds %"class.icu_75::UnicodeString", ptr %this1, i32 0, i32 1
  %fArray = getelementptr inbounds %struct.anon.0, ptr %fUnion3, i32 0, i32 3
  %1 = load ptr, ptr %fArray, align 8
  br label %cond.end

cond.end:                                         ; preds = %cond.false, %cond.true
  %cond = phi ptr [ %arraydecay, %cond.true ], [ %1, %cond.false ]
  ret ptr %cond
}

; Function Attrs: mustprogress uwtable
define linkonce_odr noundef zeroext i16 @_ZNK6icu_7513UnicodeString8doCharAtEi(ptr noundef nonnull align 8 dereferenceable(64) %this, i32 noundef %offset) #1 comdat align 2 {
entry:
  %retval = alloca i16, align 2
  %this.addr = alloca ptr, align 8
  %offset.addr = alloca i32, align 4
  store ptr %this, ptr %this.addr, align 8
  store i32 %offset, ptr %offset.addr, align 4
  %this1 = load ptr, ptr %this.addr, align 8
  %0 = load i32, ptr %offset.addr, align 4
  %call = call noundef i32 @_ZNK6icu_7513UnicodeString6lengthEv(ptr noundef nonnull align 8 dereferenceable(64) %this1)
  %cmp = icmp ult i32 %0, %call
  br i1 %cmp, label %if.then, label %if.else

if.then:                                          ; preds = %entry
  %call2 = call noundef ptr @_ZNK6icu_7513UnicodeString13getArrayStartEv(ptr noundef nonnull align 8 dereferenceable(64) %this1)
  %1 = load i32, ptr %offset.addr, align 4
  %idxprom = sext i32 %1 to i64
  %arrayidx = getelementptr inbounds i16, ptr %call2, i64 %idxprom
  %2 = load i16, ptr %arrayidx, align 2
  store i16 %2, ptr %retval, align 2
  br label %return

if.else:                                          ; preds = %entry
  store i16 -1, ptr %retval, align 2
  br label %return

return:                                           ; preds = %if.else, %if.then
  %3 = load i16, ptr %retval, align 2
  ret i16 %3
}

; Function Attrs: mustprogress nounwind uwtable
define linkonce_odr noundef i32 @_ZNK6icu_7513UnicodeString14getShortLengthEv(ptr noundef nonnull align 8 dereferenceable(64) %this) #0 comdat align 2 {
entry:
  %this.addr = alloca ptr, align 8
  store ptr %this, ptr %this.addr, align 8
  %this1 = load ptr, ptr %this.addr, align 8
  %fUnion = getelementptr inbounds %"class.icu_75::UnicodeString", ptr %this1, i32 0, i32 1
  %fLengthAndFlags = getelementptr inbounds %struct.anon.0, ptr %fUnion, i32 0, i32 0
  %0 = load i16, ptr %fLengthAndFlags, align 8
  %conv = sext i16 %0 to i32
  %shr = ashr i32 %conv, 5
  ret i32 %shr
}

; Function Attrs: mustprogress nounwind uwtable
define linkonce_odr noundef signext i8 @_ZNK6icu_7513UnicodeString14hasShortLengthEv(ptr noundef nonnull align 8 dereferenceable(64) %this) #0 comdat align 2 {
entry:
  %this.addr = alloca ptr, align 8
  store ptr %this, ptr %this.addr, align 8
  %this1 = load ptr, ptr %this.addr, align 8
  %fUnion = getelementptr inbounds %"class.icu_75::UnicodeString", ptr %this1, i32 0, i32 1
  %fLengthAndFlags = getelementptr inbounds %struct.anon.0, ptr %fUnion, i32 0, i32 0
  %0 = load i16, ptr %fLengthAndFlags, align 8
  %conv = sext i16 %0 to i32
  %cmp = icmp sge i32 %conv, 0
  %conv2 = zext i1 %cmp to i8
  ret i8 %conv2
}

; Function Attrs: mustprogress uwtable
define void @_ZN6icu_7519CollationRuleParser13setParseErrorEPKcR10UErrorCode(ptr noundef nonnull align 8 dereferenceable(76) %this, ptr noundef %reason, ptr noundef nonnull align 4 dereferenceable(4) %errorCode) #1 align 2 {
entry:
  %this.addr = alloca ptr, align 8
  %reason.addr = alloca ptr, align 8
  %errorCode.addr = alloca ptr, align 8
  store ptr %this, ptr %this.addr, align 8
  store ptr %reason, ptr %reason.addr, align 8
  store ptr %errorCode, ptr %errorCode.addr, align 8
  %this1 = load ptr, ptr %this.addr, align 8
  %0 = load ptr, ptr %errorCode.addr, align 8
  %1 = load i32, ptr %0, align 4
  %call = call noundef signext i8 @_ZL9U_FAILURE10UErrorCode(i32 noundef %1)
  %tobool = icmp ne i8 %call, 0
  br i1 %tobool, label %if.then, label %if.end

if.then:                                          ; preds = %entry
  br label %if.end3

if.end:                                           ; preds = %entry
  %2 = load ptr, ptr %errorCode.addr, align 8
  store i32 3, ptr %2, align 4
  %3 = load ptr, ptr %reason.addr, align 8
  %errorReason = getelementptr inbounds %"class.icu_75::CollationRuleParser", ptr %this1, i32 0, i32 6
  store ptr %3, ptr %errorReason, align 8
  %parseError = getelementptr inbounds %"class.icu_75::CollationRuleParser", ptr %this1, i32 0, i32 5
  %4 = load ptr, ptr %parseError, align 8
  %cmp = icmp ne ptr %4, null
  br i1 %cmp, label %if.then2, label %if.end3

if.then2:                                         ; preds = %if.end
  call void @_ZN6icu_7519CollationRuleParser15setErrorContextEv(ptr noundef nonnull align 8 dereferenceable(76) %this1)
  br label %if.end3

if.end3:                                          ; preds = %if.then2, %if.end, %if.then
  ret void
}

; Function Attrs: mustprogress uwtable
define linkonce_odr noundef zeroext i16 @_ZNK6icu_7513UnicodeString6charAtEi(ptr noundef nonnull align 8 dereferenceable(64) %this, i32 noundef %offset) #1 comdat align 2 {
entry:
  %this.addr = alloca ptr, align 8
  %offset.addr = alloca i32, align 4
  store ptr %this, ptr %this.addr, align 8
  store i32 %offset, ptr %offset.addr, align 4
  %this1 = load ptr, ptr %this.addr, align 8
  %0 = load i32, ptr %offset.addr, align 4
  %call = call noundef zeroext i16 @_ZNK6icu_7513UnicodeString8doCharAtEi(ptr noundef nonnull align 8 dereferenceable(64) %this1, i32 noundef %0)
  ret i16 %call
}

; Function Attrs: mustprogress uwtable
define linkonce_odr noundef i32 @_ZNK6icu_7513UnicodeString6lengthEv(ptr noundef nonnull align 8 dereferenceable(64) %this) #1 comdat align 2 {
entry:
  %this.addr = alloca ptr, align 8
  store ptr %this, ptr %this.addr, align 8
  %this1 = load ptr, ptr %this.addr, align 8
  %call = call noundef signext i8 @_ZNK6icu_7513UnicodeString14hasShortLengthEv(ptr noundef nonnull align 8 dereferenceable(64) %this1)
  %tobool = icmp ne i8 %call, 0
  br i1 %tobool, label %cond.true, label %cond.false

cond.true:                                        ; preds = %entry
  %call2 = call noundef i32 @_ZNK6icu_7513UnicodeString14getShortLengthEv(ptr noundef nonnull align 8 dereferenceable(64) %this1)
  br label %cond.end

cond.false:                                       ; preds = %entry
  %fUnion = getelementptr inbounds %"class.icu_75::UnicodeString", ptr %this1, i32 0, i32 1
  %fLength = getelementptr inbounds %struct.anon.0, ptr %fUnion, i32 0, i32 1
  %0 = load i32, ptr %fLength, align 4
  br label %cond.end

cond.end:                                         ; preds = %cond.false, %cond.true
  %cond = phi i32 [ %call2, %cond.true ], [ %0, %cond.false ]
  ret i32 %cond
}

; Function Attrs: mustprogress nounwind uwtable
define internal noundef signext i8 @_ZL9U_FAILURE10UErrorCode(i32 noundef %code) #0 {
entry:
  %code.addr = alloca i32, align 4
  store i32 %code, ptr %code.addr, align 4
  %0 = load i32, ptr %code.addr, align 4
  %cmp = icmp sgt i32 %0, 0
  %conv = zext i1 %cmp to i8
  ret i8 %conv
}

; Function Attrs: mustprogress uwtable
define void @_ZN6icu_7519CollationRuleParser14parseRuleChainER10UErrorCode(ptr noundef nonnull align 8 dereferenceable(76) %this, ptr noundef nonnull align 4 dereferenceable(4) %errorCode) #1 align 2 {
entry:
  %this.addr = alloca ptr, align 8
  %errorCode.addr = alloca ptr, align 8
  %resetStrength = alloca i32, align 4
  %isFirstRelation = alloca i8, align 1
  %result = alloca i32, align 4
  %strength = alloca i32, align 4
  %i = alloca i32, align 4
  store ptr %this, ptr %this.addr, align 8
  store ptr %errorCode, ptr %errorCode.addr, align 8
  %this1 = load ptr, ptr %this.addr, align 8
  %0 = load ptr, ptr %errorCode.addr, align 8
  %call = call noundef i32 @_ZN6icu_7519CollationRuleParser21parseResetAndPositionER10UErrorCode(ptr noundef nonnull align 8 dereferenceable(76) %this1, ptr noundef nonnull align 4 dereferenceable(4) %0)
  store i32 %call, ptr %resetStrength, align 4
  store i8 1, ptr %isFirstRelation, align 1
  br label %for.cond

for.cond:                                         ; preds = %if.end42, %if.then11, %entry
  %1 = load ptr, ptr %errorCode.addr, align 8
  %call2 = call noundef i32 @_ZN6icu_7519CollationRuleParser21parseRelationOperatorER10UErrorCode(ptr noundef nonnull align 8 dereferenceable(76) %this1, ptr noundef nonnull align 4 dereferenceable(4) %1)
  store i32 %call2, ptr %result, align 4
  %2 = load ptr, ptr %errorCode.addr, align 8
  %3 = load i32, ptr %2, align 4
  %call3 = call noundef signext i8 @_ZL9U_FAILURE10UErrorCode(i32 noundef %3)
  %tobool = icmp ne i8 %call3, 0
  br i1 %tobool, label %if.then, label %if.end

if.then:                                          ; preds = %for.cond
  br label %return

if.end:                                           ; preds = %for.cond
  %4 = load i32, ptr %result, align 4
  %cmp = icmp slt i32 %4, 0
  br i1 %cmp, label %if.then4, label %if.end19

if.then4:                                         ; preds = %if.end
  %ruleIndex = getelementptr inbounds %"class.icu_75::CollationRuleParser", ptr %this1, i32 0, i32 9
  %5 = load i32, ptr %ruleIndex, align 8
  %rules = getelementptr inbounds %"class.icu_75::CollationRuleParser", ptr %this1, i32 0, i32 2
  %6 = load ptr, ptr %rules, align 8
  %call5 = call noundef i32 @_ZNK6icu_7513UnicodeString6lengthEv(ptr noundef nonnull align 8 dereferenceable(64) %6)
  %cmp6 = icmp slt i32 %5, %call5
  br i1 %cmp6, label %land.lhs.true, label %if.end15

land.lhs.true:                                    ; preds = %if.then4
  %rules7 = getelementptr inbounds %"class.icu_75::CollationRuleParser", ptr %this1, i32 0, i32 2
  %7 = load ptr, ptr %rules7, align 8
  %ruleIndex8 = getelementptr inbounds %"class.icu_75::CollationRuleParser", ptr %this1, i32 0, i32 9
  %8 = load i32, ptr %ruleIndex8, align 8
  %call9 = call noundef zeroext i16 @_ZNK6icu_7513UnicodeString6charAtEi(ptr noundef nonnull align 8 dereferenceable(64) %7, i32 noundef %8)
  %conv = zext i16 %call9 to i32
  %cmp10 = icmp eq i32 %conv, 35
  br i1 %cmp10, label %if.then11, label %if.end15

if.then11:                                        ; preds = %land.lhs.true
  %ruleIndex12 = getelementptr inbounds %"class.icu_75::CollationRuleParser", ptr %this1, i32 0, i32 9
  %9 = load i32, ptr %ruleIndex12, align 8
  %add = add nsw i32 %9, 1
  %call13 = call noundef i32 @_ZNK6icu_7519CollationRuleParser11skipCommentEi(ptr noundef nonnull align 8 dereferenceable(76) %this1, i32 noundef %add)
  %ruleIndex14 = getelementptr inbounds %"class.icu_75::CollationRuleParser", ptr %this1, i32 0, i32 9
  store i32 %call13, ptr %ruleIndex14, align 8
  br label %for.cond, !llvm.loop !6

if.end15:                                         ; preds = %land.lhs.true, %if.then4
  %10 = load i8, ptr %isFirstRelation, align 1
  %tobool16 = icmp ne i8 %10, 0
  br i1 %tobool16, label %if.then17, label %if.end18

if.then17:                                        ; preds = %if.end15
  %11 = load ptr, ptr %errorCode.addr, align 8
  call void @_ZN6icu_7519CollationRuleParser13setParseErrorEPKcR10UErrorCode(ptr noundef nonnull align 8 dereferenceable(76) %this1, ptr noundef @.str.1, ptr noundef nonnull align 4 dereferenceable(4) %11)
  br label %if.end18

if.end18:                                         ; preds = %if.then17, %if.end15
  br label %return

if.end19:                                         ; preds = %if.end
  %12 = load i32, ptr %result, align 4
  %and = and i32 %12, 15
  store i32 %and, ptr %strength, align 4
  %13 = load i32, ptr %resetStrength, align 4
  %cmp20 = icmp slt i32 %13, 15
  br i1 %cmp20, label %if.then21, label %if.end31

if.then21:                                        ; preds = %if.end19
  %14 = load i8, ptr %isFirstRelation, align 1
  %tobool22 = icmp ne i8 %14, 0
  br i1 %tobool22, label %if.then23, label %if.else

if.then23:                                        ; preds = %if.then21
  %15 = load i32, ptr %strength, align 4
  %16 = load i32, ptr %resetStrength, align 4
  %cmp24 = icmp ne i32 %15, %16
  br i1 %cmp24, label %if.then25, label %if.end26

if.then25:                                        ; preds = %if.then23
  %17 = load ptr, ptr %errorCode.addr, align 8
  call void @_ZN6icu_7519CollationRuleParser13setParseErrorEPKcR10UErrorCode(ptr noundef nonnull align 8 dereferenceable(76) %this1, ptr noundef @.str.2, ptr noundef nonnull align 4 dereferenceable(4) %17)
  br label %return

if.end26:                                         ; preds = %if.then23
  br label %if.end30

if.else:                                          ; preds = %if.then21
  %18 = load i32, ptr %strength, align 4
  %19 = load i32, ptr %resetStrength, align 4
  %cmp27 = icmp slt i32 %18, %19
  br i1 %cmp27, label %if.then28, label %if.end29

if.then28:                                        ; preds = %if.else
  %20 = load ptr, ptr %errorCode.addr, align 8
  call void @_ZN6icu_7519CollationRuleParser13setParseErrorEPKcR10UErrorCode(ptr noundef nonnull align 8 dereferenceable(76) %this1, ptr noundef @.str.3, ptr noundef nonnull align 4 dereferenceable(4) %20)
  br label %return

if.end29:                                         ; preds = %if.else
  br label %if.end30

if.end30:                                         ; preds = %if.end29, %if.end26
  br label %if.end31

if.end31:                                         ; preds = %if.end30, %if.end19
  %ruleIndex32 = getelementptr inbounds %"class.icu_75::CollationRuleParser", ptr %this1, i32 0, i32 9
  %21 = load i32, ptr %ruleIndex32, align 8
  %22 = load i32, ptr %result, align 4
  %shr = ashr i32 %22, 8
  %add33 = add nsw i32 %21, %shr
  store i32 %add33, ptr %i, align 4
  %23 = load i32, ptr %result, align 4
  %and34 = and i32 %23, 16
  %cmp35 = icmp eq i32 %and34, 0
  br i1 %cmp35, label %if.then36, label %if.else37

if.then36:                                        ; preds = %if.end31
  %24 = load i32, ptr %strength, align 4
  %25 = load i32, ptr %i, align 4
  %26 = load ptr, ptr %errorCode.addr, align 8
  call void @_ZN6icu_7519CollationRuleParser20parseRelationStringsEiiR10UErrorCode(ptr noundef nonnull align 8 dereferenceable(76) %this1, i32 noundef %24, i32 noundef %25, ptr noundef nonnull align 4 dereferenceable(4) %26)
  br label %if.end38

if.else37:                                        ; preds = %if.end31
  %27 = load i32, ptr %strength, align 4
  %28 = load i32, ptr %i, align 4
  %29 = load ptr, ptr %errorCode.addr, align 8
  call void @_ZN6icu_7519CollationRuleParser22parseStarredCharactersEiiR10UErrorCode(ptr noundef nonnull align 8 dereferenceable(76) %this1, i32 noundef %27, i32 noundef %28, ptr noundef nonnull align 4 dereferenceable(4) %29)
  br label %if.end38

if.end38:                                         ; preds = %if.else37, %if.then36
  %30 = load ptr, ptr %errorCode.addr, align 8
  %31 = load i32, ptr %30, align 4
  %call39 = call noundef signext i8 @_ZL9U_FAILURE10UErrorCode(i32 noundef %31)
  %tobool40 = icmp ne i8 %call39, 0
  br i1 %tobool40, label %if.then41, label %if.end42

if.then41:                                        ; preds = %if.end38
  br label %return

if.end42:                                         ; preds = %if.end38
  store i8 0, ptr %isFirstRelation, align 1
  br label %for.cond, !llvm.loop !6

return:                                           ; preds = %if.then41, %if.then28, %if.then25, %if.end18, %if.then
  ret void
}