; Function Attrs: mustprogress uwtable
define void @_ZN6icu_7519CollationRuleParser14parseRuleChainER10UErrorCode(ptr noundef nonnull align 8 dereferenceable(76) %this, ptr noundef nonnull align 4 dereferenceable(4) %errorCode) local_unnamed_addr #1 align 2 {
entry:
  %call = tail call noundef i32 @_ZN6icu_7519CollationRuleParser21parseResetAndPositionER10UErrorCode(ptr noundef nonnull align 8 dereferenceable(76) %this, ptr noundef nonnull align 4 dereferenceable(4) %errorCode), !range !6
  %ruleIndex = getelementptr inbounds i8, ptr %this, i64 72
  %rules = getelementptr inbounds i8, ptr %this, i64 16
  %cmp20 = icmp slt i32 %call, 15
  br label %for.cond.outer

for.cond.outer:                                   ; preds = %if.end38, %entry
  %tobool22.not = phi i1 [ true, %if.end38 ], [ false, %entry ]
  %call247 = tail call noundef i32 @_ZN6icu_7519CollationRuleParser21parseRelationOperatorER10UErrorCode(ptr noundef nonnull align 8 dereferenceable(76) %this, ptr noundef nonnull align 4 dereferenceable(4) %errorCode)
  %0 = load i32, ptr %errorCode, align 4
  %cmp.i48 = icmp slt i32 %0, 1
  br i1 %cmp.i48, label %if.end, label %return

if.end:                                           ; preds = %for.cond.outer, %if.then11
  %call249 = phi i32 [ %call2, %if.then11 ], [ %call247, %for.cond.outer ]
  %cmp = icmp slt i32 %call249, 0
  br i1 %cmp, label %if.then4, label %if.end19

if.then4:                                         ; preds = %if.end
  %1 = load i32, ptr %ruleIndex, align 8
  %2 = load ptr, ptr %rules, align 8
  %fUnion.i.i = getelementptr inbounds i8, ptr %2, i64 8
  %3 = load i16, ptr %fUnion.i.i, align 8
  %cmp.i.i = icmp slt i16 %3, 0
  %4 = ashr i16 %3, 5
  %shr.i.i = sext i16 %4 to i32
  %fLength.i = getelementptr inbounds i8, ptr %2, i64 12
  %5 = load i32, ptr %fLength.i, align 4
  %cond.i = select i1 %cmp.i.i, i32 %5, i32 %shr.i.i
  %cmp6 = icmp slt i32 %1, %cond.i
  %cmp.i.i19 = icmp ugt i32 %cond.i, %1
  %or.cond = and i1 %cmp6, %cmp.i.i19
  br i1 %or.cond, label %_ZNK6icu_7513UnicodeString6charAtEi.exit, label %if.end15

_ZNK6icu_7513UnicodeString6charAtEi.exit:         ; preds = %if.then4
  %6 = and i16 %3, 2
  %tobool.not.i.i.i = icmp eq i16 %6, 0
  %fBuffer.i.i.i = getelementptr inbounds i8, ptr %2, i64 10
  %fArray.i.i.i = getelementptr inbounds i8, ptr %2, i64 24
  %7 = load ptr, ptr %fArray.i.i.i, align 8
  %cond.i2.i.i = select i1 %tobool.not.i.i.i, ptr %7, ptr %fBuffer.i.i.i
  %idxprom.i.i = sext i32 %1 to i64
  %arrayidx.i.i = getelementptr inbounds i16, ptr %cond.i2.i.i, i64 %idxprom.i.i
  %8 = load i16, ptr %arrayidx.i.i, align 2
  %cmp10 = icmp eq i16 %8, 35
  br i1 %cmp10, label %if.then11, label %if.end15

if.then11:                                        ; preds = %_ZNK6icu_7513UnicodeString6charAtEi.exit
  %add = add nuw nsw i32 %1, 1
  %call13 = tail call noundef i32 @_ZNK6icu_7519CollationRuleParser11skipCommentEi(ptr noundef nonnull align 8 dereferenceable(76) %this, i32 noundef %add)
  store i32 %call13, ptr %ruleIndex, align 8
  %call2 = tail call noundef i32 @_ZN6icu_7519CollationRuleParser21parseRelationOperatorER10UErrorCode(ptr noundef nonnull align 8 dereferenceable(76) %this, ptr noundef nonnull align 4 dereferenceable(4) %errorCode)
  %9 = load i32, ptr %errorCode, align 4
  %cmp.i = icmp slt i32 %9, 1
  br i1 %cmp.i, label %if.end, label %return, !llvm.loop !7

if.end15:                                         ; preds = %_ZNK6icu_7513UnicodeString6charAtEi.exit, %if.then4
  br i1 %tobool22.not, label %return, label %if.end.i

if.end.i:                                         ; preds = %if.end15
  store i32 3, ptr %errorCode, align 4
  %errorReason.i = getelementptr inbounds i8, ptr %this, i64 48
  store ptr @.str.1, ptr %errorReason.i, align 8
  %parseError.i = getelementptr inbounds i8, ptr %this, i64 40
  %10 = load ptr, ptr %parseError.i, align 8
  %cmp.not.i = icmp eq ptr %10, null
  br i1 %cmp.not.i, label %return, label %return.sink.split

if.end19:                                         ; preds = %if.end
  %and = and i32 %call249, 15
  br i1 %cmp20, label %if.then21, label %if.end31

if.then21:                                        ; preds = %if.end19
  br i1 %tobool22.not, label %if.else, label %if.then23

if.then23:                                        ; preds = %if.then21
  %cmp24.not = icmp eq i32 %and, %call
  br i1 %cmp24.not, label %if.end31, label %if.end.i22

if.end.i22:                                       ; preds = %if.then23
  store i32 3, ptr %errorCode, align 4
  %errorReason.i23 = getelementptr inbounds i8, ptr %this, i64 48
  store ptr @.str.2, ptr %errorReason.i23, align 8
  %parseError.i24 = getelementptr inbounds i8, ptr %this, i64 40
  %11 = load ptr, ptr %parseError.i24, align 8
  %cmp.not.i25 = icmp eq ptr %11, null
  br i1 %cmp.not.i25, label %return, label %return.sink.split

if.else:                                          ; preds = %if.then21
  %cmp27 = icmp slt i32 %and, %call
  br i1 %cmp27, label %if.end.i29, label %if.end31

if.end.i29:                                       ; preds = %if.else
  store i32 3, ptr %errorCode, align 4
  %errorReason.i30 = getelementptr inbounds i8, ptr %this, i64 48
  store ptr @.str.3, ptr %errorReason.i30, align 8
  %parseError.i31 = getelementptr inbounds i8, ptr %this, i64 40
  %12 = load ptr, ptr %parseError.i31, align 8
  %cmp.not.i32 = icmp eq ptr %12, null
  br i1 %cmp.not.i32, label %return, label %return.sink.split

if.end31:                                         ; preds = %if.then23, %if.else, %if.end19
  %13 = load i32, ptr %ruleIndex, align 8
  %shr = lshr i32 %call249, 8
  %add33 = add nsw i32 %13, %shr
  %and34 = and i32 %call249, 16
  %cmp35 = icmp eq i32 %and34, 0
  br i1 %cmp35, label %if.then36, label %if.else37

if.then36:                                        ; preds = %if.end31
  tail call void @_ZN6icu_7519CollationRuleParser20parseRelationStringsEiiR10UErrorCode(ptr noundef nonnull align 8 dereferenceable(76) %this, i32 noundef %and, i32 noundef %add33, ptr noundef nonnull align 4 dereferenceable(4) %errorCode)
  br label %if.end38

if.else37:                                        ; preds = %if.end31
  tail call void @_ZN6icu_7519CollationRuleParser22parseStarredCharactersEiiR10UErrorCode(ptr noundef nonnull align 8 dereferenceable(76) %this, i32 noundef %and, i32 noundef %add33, ptr noundef nonnull align 4 dereferenceable(4) %errorCode)
  br label %if.end38

if.end38:                                         ; preds = %if.else37, %if.then36
  %14 = load i32, ptr %errorCode, align 4
  %cmp.i35 = icmp slt i32 %14, 1
  br i1 %cmp.i35, label %for.cond.outer, label %return, !llvm.loop !7

return.sink.split:                                ; preds = %if.end.i29, %if.end.i22, %if.end.i
  tail call void @_ZN6icu_7519CollationRuleParser15setErrorContextEv(ptr noundef nonnull align 8 dereferenceable(76) %this)
  br label %return

return:                                           ; preds = %for.cond.outer, %if.end38, %if.then11, %return.sink.split, %if.end.i29, %if.end.i22, %if.end.i, %if.end15
  ret void
}